target datalayout = "e-m:e-p270:32:32-p271:32:32-p272:64:64-i64:64-i128:128-f80:128-n8:16:32:64-S128"
target triple = "x86_64-pc-linux-gnu"

%"class.dap::ReaderWriter" = type { %"class.dap::Reader", %"class.dap::Writer" }
%"class.dap::Reader" = type { %"class.dap::Closable" }
%"class.dap::Closable" = type { ptr }
%"class.dap::Writer" = type { %"class.dap::Closable" }
%"class.std::__weak_count" = type { ptr }
%"class.std::__cxx11::basic_string" = type { %"struct.std::__cxx11::basic_string<char>::_Alloc_hider", i64, %union.anon }
%"struct.std::__cxx11::basic_string<char>::_Alloc_hider" = type { ptr }
%union.anon = type { i64, [8 x i8] }
%"class.cmDebugger::cmDebuggerPipeClient_POSIX" = type <{ %"class.dap::ReaderWriter", %"class.std::enable_shared_from_this.11", %"class.std::__cxx11::basic_string", i32, [4 x i8] }>
%"class.std::enable_shared_from_this.11" = type { %"class.std::weak_ptr.12" }
%"class.std::weak_ptr.12" = type { %"class.std::__weak_ptr.13" }
%"class.std::__weak_ptr.13" = type { ptr, %"class.std::__weak_count" }

; Function Attrs: mustprogress uwtable
define dso_local void @_ZN10cmDebugger26cmDebuggerPipeClient_POSIX5closeEv(ptr noundef nonnull align 8 dereferenceable(68) %0) unnamed_addr #0 align 2 {
  %2 = alloca ptr, align 8
  store ptr %0, ptr %2, align 8
  %3 = load ptr, ptr %2, align 8
  %4 = load ptr, ptr %3, align 8
  %5 = getelementptr inbounds ptr, ptr %4, i64 2
  %6 = load ptr, ptr %5, align 8
  %7 = call noundef zeroext i1 %6(ptr noundef nonnull align 8 dereferenceable(68) %3)
  br i1 %7, label %8, label %13

8:                                                ; preds = %1
  %9 = getelementptr inbounds %"class.cmDebugger::cmDebuggerPipeClient_POSIX", ptr %3, i32 0, i32 3
  %10 = load i32, ptr %9, align 8
  %11 = call i32 @close(i32 noundef %10)
  %12 = getelementptr inbounds %"class.cmDebugger::cmDebuggerPipeClient_POSIX", ptr %3, i32 0, i32 3
  store i32 -1, ptr %12, align 8
  br label %13

13:                                               ; preds = %8, %1
  ret void
}