; Function Attrs: mustprogress uwtable
define dso_local void @_ZN10cmDebugger26cmDebuggerPipeClient_POSIX5closeEv(ptr noundef nonnull align 8 dereferenceable(68) %0) unnamed_addr #0 align 2 {
  %2 = load ptr, ptr %0, align 8
  %3 = getelementptr inbounds i8, ptr %2, i64 16
  %4 = load ptr, ptr %3, align 8
  %5 = tail call noundef zeroext i1 %4(ptr noundef nonnull align 8 dereferenceable(68) %0)
  br i1 %5, label %6, label %10

6:                                                ; preds = %1
  %7 = getelementptr inbounds i8, ptr %0, i64 64
  %8 = load i32, ptr %7, align 8
  %9 = tail call i32 @close(i32 noundef %8)
  store i32 -1, ptr %7, align 8
  br label %10

10:                                               ; preds = %6, %1
  ret void
}